; ModuleID = 'source-C-CXX/10/602.c'
source_filename = "source-C-CXX/10/602.c"
target datalayout = "e-m:e-p270:32:32-p271:32:32-p272:64:64-i64:64-f80:128-n8:16:32:64-S128"
target triple = "x86_64-pc-linux-gnu"

@__const.main.a = private unnamed_addr constant [12 x i32] [i32 0, i32 31, i32 59, i32 90, i32 120, i32 151, i32 181, i32 212, i32 243, i32 273, i32 304, i32 334], align 16
@.str = private unnamed_addr constant [7 x i8] c"%d%d%d\00", align 1
@.str.1 = private unnamed_addr constant [3 x i8] c"%d\00", align 1

; Function Attrs: nofree nounwind sspstrong uwtable
define dso_local i32 @main() local_unnamed_addr #0 {
  %1 = alloca i32, align 4
  %2 = alloca i32, align 4
  %3 = alloca i32, align 4
  %4 = bitcast i32* %1 to i8*
  call void @llvm.lifetime.start.p0i8(i64 4, i8* nonnull %4) #3
  %5 = bitcast i32* %2 to i8*
  call void @llvm.lifetime.start.p0i8(i64 4, i8* nonnull %5) #3
  %6 = bitcast i32* %3 to i8*
  call void @llvm.lifetime.start.p0i8(i64 4, i8* nonnull %6) #3
  %7 = call i32 (i8*, ...) @__isoc99_scanf(i8* getelementptr inbounds ([7 x i8], [7 x i8]* @.str, i64 0, i64 0), i32* nonnull %2, i32* nonnull %3, i32* nonnull %1)
  %8 = load i32, i32* %2, align 4, !tbaa !5
  %9 = and i32 %8, 3
  %10 = icmp eq i32 %9, 0
  %11 = srem i32 %8, 100
  %12 = icmp ne i32 %11, 0
  %13 = and i1 %10, %12
  %14 = srem i32 %8, 400
  %15 = icmp eq i32 %14, 0
  %16 = select i1 %13, i1 true, i1 %15
  %17 = load i32, i32* %3, align 4, !tbaa !5
  %18 = add i32 %17, -1
  br i1 %16, label %19, label %34

19:                                               ; preds = %0
  %20 = icmp ult i32 %18, 2
  br i1 %20, label %21, label %27

21:                                               ; preds = %19
  %22 = zext i32 %18 to i64
  %23 = getelementptr inbounds [12 x i32], [12 x i32]* @__const.main.a, i64 0, i64 %22
  %24 = load i32, i32* %23, align 4, !tbaa !5
  %25 = load i32, i32* %1, align 4, !tbaa !5
  %26 = add nsw i32 %25, %24
  br label %40

27:                                               ; preds = %19
  %28 = sext i32 %18 to i64
  %29 = getelementptr inbounds [12 x i32], [12 x i32]* @__const.main.a, i64 0, i64 %28
  %30 = load i32, i32* %29, align 4, !tbaa !5
  %31 = load i32, i32* %1, align 4, !tbaa !5
  %32 = add i32 %30, 1
  %33 = add i32 %32, %31
  br label %40

34:                                               ; preds = %0
  %35 = sext i32 %18 to i64
  %36 = getelementptr inbounds [12 x i32], [12 x i32]* @__const.main.a, i64 0, i64 %35
  %37 = load i32, i32* %36, align 4, !tbaa !5
  %38 = load i32, i32* %1, align 4, !tbaa !5
  %39 = add nsw i32 %38, %37
  br label %40

40:                                               ; preds = %21, %27, %34
  %41 = phi i32 [ %26, %21 ], [ %33, %27 ], [ %39, %34 ]
  %42 = call i32 (i8*, ...) @printf(i8* nonnull dereferenceable(1) getelementptr inbounds ([3 x i8], [3 x i8]* @.str.1, i64 0, i64 0), i32 %41)
  call void @llvm.lifetime.end.p0i8(i64 4, i8* nonnull %6) #3
  call void @llvm.lifetime.end.p0i8(i64 4, i8* nonnull %5) #3
  call void @llvm.lifetime.end.p0i8(i64 4, i8* nonnull %4) #3
  ret i32 0
}

; Function Attrs: argmemonly mustprogress nofree nosync nounwind willreturn
declare void @llvm.lifetime.start.p0i8(i64 immarg, i8* nocapture) #1

; Function Attrs: nofree nounwind
declare noundef i32 @__isoc99_scanf(i8* nocapture noundef readonly, ...) local_unnamed_addr #2

; Function Attrs: nofree nounwind
declare noundef i32 @printf(i8* nocapture noundef readonly, ...) local_unnamed_addr #2

; Function Attrs: argmemonly mustprogress nofree nosync nounwind willreturn
declare void @llvm.lifetime.end.p0i8(i64 immarg, i8* nocapture) #1


!llvm.module.flags = !{!0, !1, !2, !3}
!llvm.ident = !{!4}

!0 = !{i32 1, !"wchar_size", i32 4}
!1 = !{i32 7, !"PIC Level", i32 2}
!2 = !{i32 7, !"PIE Level", i32 2}
!3 = !{i32 7, !"uwtable", i32 1}
!4 = !{!"clang version 13.0.0"}
!5 = !{!6, !6, i64 0}
!6 = !{!"int", !7, i64 0}
!7 = !{!"omnipotent char", !8, i64 0}
!8 = !{!"Simple C/C++ TBAA"}
